Certificate:
    Data:
        Version: 3 (0x2)
        Serial Number: 1 (0x1)
    Signature Algorithm: sha256WithRSAEncryption
        Issuer: CN=wiki
        Validity
            Not Before: Jul 30 10:31:38 2016 GMT
            Not After : Jul 28 10:31:38 2026 GMT
        Subject: CN=docker
        Subject Public Key Info:
            Public Key Algorithm: rsaEncryption
                Public-Key: (2048 bit)
                Modulus:
                    00:fa:92:92:8c:f9:31:46:59:4b:c3:da:7c:05:f8:
                    b6:9f:f0:c5:0d:32:60:d7:a1:a7:ea:a9:45:86:c4:
                    b3:e2:6e:ca:d0:6f:9a:b3:65:54:1b:28:e9:b6:9c:
                    98:28:b4:6b:6a:31:eb:a6:2f:67:1f:89:d2:01:31:
                    fc:58:f2:99:26:af:fc:0d:2c:fe:d3:10:fb:a6:5d:
                    4d:ad:aa:65:93:3a:64:27:8c:0d:b2:65:c6:15:f1:
                    ba:df:79:32:a5:e4:19:9c:14:56:9b:c3:2f:b4:4c:
                    e3:55:a1:17:a9:97:d8:f3:07:93:e7:88:26:fc:36:
                    ab:e0:52:42:ae:be:17:b1:8c:35:b3:44:40:b2:30:
                    e6:7b:c6:72:62:ca:6e:96:e1:43:f2:f5:ed:ac:28:
                    63:f8:9f:1d:d4:3d:18:ad:18:16:3b:a1:98:9c:a8:
                    e4:3f:07:37:9c:ae:fb:2f:23:cc:41:6e:3e:48:cb:
                    1e:8f:7a:8e:cf:0f:5b:15:10:e2:66:46:89:6f:4b:
                    c8:b4:86:b3:6e:09:20:9e:12:b8:81:2c:06:c0:93:
                    e8:05:4a:8d:45:1e:db:6b:11:4f:bd:de:90:3e:6c:
                    32:aa:3d:e1:50:0c:a7:14:0d:48:a9:ba:4f:16:fa:
                    b1:b7:b5:0e:3b:be:80:a2:b7:59:a5:5e:f1:99:c0:
                    86:87
                Exponent: 65537 (0x10001)
        X509v3 extensions:
            X509v3 Basic Constraints: 
                CA:FALSE
            X509v3 Subject Key Identifier: 
                7E:EB:97:A5:E6:E7:69:78:58:2D:79:4C:CA:C6:6A:F5:B3:35:7C:69
            X509v3 Authority Key Identifier: 
                keyid:C9:3D:EA:EB:02:69:17:9D:68:FB:7C:C6:86:D9:8F:A7:7A:F6:2E:B9
                DirName:/CN=wiki
                serial:CA:57:71:6D:EE:28:90:D7

            X509v3 Extended Key Usage: 
                TLS Web Server Authentication
            X509v3 Key Usage: 
                Digital Signature, Key Encipherment
    Signature Algorithm: sha256WithRSAEncryption
         16:b0:9d:d2:83:b5:7f:5a:14:26:a8:6e:25:2e:15:44:1c:c4:
         25:50:f7:4c:f6:53:ee:39:f2:df:54:9b:eb:ec:16:4c:62:12:
         70:1a:32:41:26:b7:e3:99:df:9f:54:5d:56:95:d1:6f:b8:68:
         a2:02:4c:eb:c2:30:f1:00:86:44:cc:2e:93:ef:c0:e2:58:ab:
         20:d2:56:1a:88:c6:4c:c4:82:87:74:c1:af:e0:31:a5:ab:95:
         45:0e:1f:c0:b2:a3:92:04:31:35:63:fb:40:9f:90:1c:09:bf:
         7f:ce:35:19:45:57:64:05:01:9f:af:39:2f:1c:3a:bc:96:23:
         5b:5c:42:64:c7:fd:82:f1:6d:2d:80:62:f0:2e:c5:ab:5c:12:
         d8:f7:40:74:66:e8:e8:c0:d3:20:a4:26:97:6b:44:f0:7f:26:
         e5:e5:18:2e:68:a2:6a:c7:34:52:4e:da:95:ce:c8:b6:fc:7a:
         b1:fa:16:19:46:cd:28:38:94:b9:1e:2c:20:9d:39:d5:09:c9:
         59:54:51:71:0d:b0:05:c0:2b:f2:a7:61:95:94:7f:b4:6c:5f:
         9c:ef:e2:d4:73:28:28:8f:89:17:af:50:b3:31:c1:54:3e:e1:
         e2:58:f9:3c:a8:56:93:ed:c8:ae:0e:68:e5:6a:e6:3c:60:2a:
         e6:13:56:77
-----BEGIN CERTIFICATE-----
MIIDLDCCAhSgAwIBAgIBATANBgkqhkiG9w0BAQsFADAPMQ0wCwYDVQQDDAR3aWtp
MB4XDTE2MDczMDEwMzEzOFoXDTI2MDcyODEwMzEzOFowETEPMA0GA1UEAwwGZG9j
a2VyMIIBIjANBgkqhkiG9w0BAQEFAAOCAQ8AMIIBCgKCAQEA+pKSjPkxRllLw9p8
Bfi2n/DFDTJg16Gn6qlFhsSz4m7K0G+as2VUGyjptpyYKLRrajHrpi9nH4nSATH8
WPKZJq/8DSz+0xD7pl1NraplkzpkJ4wNsmXGFfG633kypeQZnBRWm8MvtEzjVaEX
qZfY8weT54gm/Dar4FJCrr4XsYw1s0RAsjDme8ZyYspuluFD8vXtrChj+J8d1D0Y
rRgWO6GYnKjkPwc3nK77LyPMQW4+SMsej3qOzw9bFRDiZkaJb0vItIazbgkgnhK4
gSwGwJPoBUqNRR7baxFPvd6QPmwyqj3hUAynFA1IqbpPFvqxt7UOO76AordZpV7x
mcCGhwIDAQABo4GQMIGNMAkGA1UdEwQCMAAwHQYDVR0OBBYEFH7rl6Xm52l4WC15
TMrGavWzNXxpMD8GA1UdIwQ4MDaAFMk96usCaRedaPt8xobZj6d69i65oROkETAP
MQ0wCwYDVQQDDAR3aWtpggkAyldxbe4okNcwEwYDVR0lBAwwCgYIKwYBBQUHAwEw
CwYDVR0PBAQDAgWgMA0GCSqGSIb3DQEBCwUAA4IBAQAWsJ3Sg7V/WhQmqG4lLhVE
HMQlUPdM9lPuOfLfVJvr7BZMYhJwGjJBJrfjmd+fVF1WldFvuGiiAkzrwjDxAIZE
zC6T78DiWKsg0lYaiMZMxIKHdMGv4DGlq5VFDh/AsqOSBDE1Y/tAn5AcCb9/zjUZ
RVdkBQGfrzkvHDq8liNbXEJkx/2C8W0tgGLwLsWrXBLY90B0ZujowNMgpCaXa0Tw
fybl5RguaKJqxzRSTtqVzsi2/Hqx+hYZRs0oOJS5HiwgnTnVCclZVFFxDbAFwCvy
p2GVlH+0bF+c7+LUcygoj4kXr1CzMcFUPuHiWPk8qFaT7ciuDmjlauY8YCrmE1Z3
-----END CERTIFICATE-----
