Certificate:
    Data:
        Version: 3 (0x2)
        Serial Number: 2 (0x2)
    Signature Algorithm: sha256WithRSAEncryption
        Issuer: CN=wiki
        Validity
            Not Before: Jul 30 10:32:17 2016 GMT
            Not After : Jul 28 10:32:17 2026 GMT
        Subject: CN=wiki
        Subject Public Key Info:
            Public Key Algorithm: rsaEncryption
                Public-Key: (2048 bit)
                Modulus:
                    00:b6:78:67:2b:cd:b0:d7:64:84:f1:cd:55:e2:63:
                    0d:2d:05:05:72:cd:1c:8d:90:5e:2c:ef:ce:f2:01:
                    ae:a5:c6:8d:48:29:79:b7:4c:2f:05:44:d7:46:17:
                    40:4b:82:42:f8:e1:93:91:4c:1d:ec:25:80:be:12:
                    ce:6c:c0:b0:68:04:3c:ca:c9:21:e4:2a:c6:fa:2d:
                    3f:4b:f2:b1:46:56:e7:fe:cc:66:65:a1:f9:d6:96:
                    7d:12:e1:0f:f0:c3:a5:46:81:1c:96:a9:d2:90:1c:
                    d8:0f:41:54:89:fd:0d:62:f5:70:fc:84:9c:6c:da:
                    6f:f0:9f:59:7b:06:3a:49:f5:53:09:47:a6:27:7e:
                    ca:2b:b3:47:f0:48:98:5a:4b:59:b9:03:75:d7:5b:
                    84:e1:ce:f9:45:5c:b5:4c:c1:43:d9:8c:00:80:fc:
                    f0:00:64:3a:7e:c7:b4:16:eb:9d:01:6f:dd:ae:24:
                    00:2a:28:98:07:8f:97:2c:ba:60:78:1a:a3:79:d6:
                    8c:93:33:c9:e9:81:09:fb:6c:45:78:1d:d6:84:1c:
                    bc:67:0f:a2:07:01:e2:de:a3:71:91:29:f7:63:70:
                    72:0e:90:de:5f:58:6f:4d:09:fa:9d:c8:55:5f:e1:
                    02:ff:8a:aa:e8:a3:39:d1:16:03:d3:8e:ec:47:37:
                    72:c1
                Exponent: 65537 (0x10001)
        X509v3 extensions:
            X509v3 Basic Constraints: 
                CA:FALSE
            X509v3 Subject Key Identifier: 
                A9:B9:32:9A:9A:1F:4C:20:6F:BB:A7:09:47:89:FF:C2:F1:FC:BE:C0
            X509v3 Authority Key Identifier: 
                keyid:C9:3D:EA:EB:02:69:17:9D:68:FB:7C:C6:86:D9:8F:A7:7A:F6:2E:B9
                DirName:/CN=wiki
                serial:CA:57:71:6D:EE:28:90:D7

            X509v3 Extended Key Usage: 
                TLS Web Client Authentication
            X509v3 Key Usage: 
                Digital Signature
    Signature Algorithm: sha256WithRSAEncryption
         48:d9:a8:06:00:33:6f:c5:17:da:db:f8:27:b0:47:a1:1c:22:
         d7:c8:6e:69:dc:20:fe:0f:c5:dc:c1:68:13:58:d5:b2:2b:7f:
         f8:2d:98:8d:fd:28:61:94:b1:86:e0:25:eb:5d:88:22:8e:aa:
         f7:ae:32:15:a4:01:32:d0:5d:05:8b:fc:53:d3:e6:7b:c9:62:
         1e:83:99:8e:e7:35:c3:f3:7b:80:86:9a:2e:14:3d:38:68:5b:
         51:b8:e8:4d:49:f1:2e:fe:2a:ed:82:fe:d7:ed:15:a5:27:5d:
         b1:a1:18:8e:42:94:05:cb:df:e3:62:59:41:05:c4:92:2e:ce:
         ad:b2:06:df:56:ec:d8:b5:8b:78:40:0f:35:83:97:55:b5:fc:
         f2:87:39:33:cd:d0:3d:6e:ba:ae:57:b1:a8:f6:66:28:a0:bc:
         50:1d:89:12:21:52:35:65:71:83:14:d3:1b:90:0f:e8:9b:9f:
         38:e4:85:05:a7:6e:2b:fa:54:44:d2:0c:a9:08:f4:75:17:74:
         84:1a:73:1b:f5:ef:61:56:81:01:ed:90:3a:04:b8:50:3f:e3:
         38:85:19:12:74:fd:5a:3b:c1:49:fe:79:5d:a6:cb:9b:45:fc:
         39:c0:cb:81:d0:72:cc:56:51:8c:6c:b9:50:85:cb:36:88:a1:
         22:90:db:4f
-----BEGIN CERTIFICATE-----
MIIDKjCCAhKgAwIBAgIBAjANBgkqhkiG9w0BAQsFADAPMQ0wCwYDVQQDDAR3aWtp
MB4XDTE2MDczMDEwMzIxN1oXDTI2MDcyODEwMzIxN1owDzENMAsGA1UEAwwEd2lr
aTCCASIwDQYJKoZIhvcNAQEBBQADggEPADCCAQoCggEBALZ4ZyvNsNdkhPHNVeJj
DS0FBXLNHI2QXizvzvIBrqXGjUgpebdMLwVE10YXQEuCQvjhk5FMHewlgL4SzmzA
sGgEPMrJIeQqxvotP0vysUZW5/7MZmWh+daWfRLhD/DDpUaBHJap0pAc2A9BVIn9
DWL1cPyEnGzab/CfWXsGOkn1UwlHpid+yiuzR/BImFpLWbkDdddbhOHO+UVctUzB
Q9mMAID88ABkOn7HtBbrnQFv3a4kACoomAePlyy6YHgao3nWjJMzyemBCftsRXgd
1oQcvGcPogcB4t6jcZEp92Nwcg6Q3l9Yb00J+p3IVV/hAv+KquijOdEWA9OO7Ec3
csECAwEAAaOBkDCBjTAJBgNVHRMEAjAAMB0GA1UdDgQWBBSpuTKamh9MIG+7pwlH
if/C8fy+wDA/BgNVHSMEODA2gBTJPerrAmkXnWj7fMaG2Y+nevYuuaETpBEwDzEN
MAsGA1UEAwwEd2lraYIJAMpXcW3uKJDXMBMGA1UdJQQMMAoGCCsGAQUFBwMCMAsG
A1UdDwQEAwIHgDANBgkqhkiG9w0BAQsFAAOCAQEASNmoBgAzb8UX2tv4J7BHoRwi
18huadwg/g/F3MFoE1jVsit/+C2Yjf0oYZSxhuAl612IIo6q964yFaQBMtBdBYv8
U9Pme8liHoOZjuc1w/N7gIaaLhQ9OGhbUbjoTUnxLv4q7YL+1+0VpSddsaEYjkKU
Bcvf42JZQQXEki7OrbIG31bs2LWLeEAPNYOXVbX88oc5M83QPW66rlexqPZmKKC8
UB2JEiFSNWVxgxTTG5AP6JufOOSFBaduK/pURNIMqQj0dRd0hBpzG/XvYVaBAe2Q
OgS4UD/jOIUZEnT9WjvBSf55XabLm0X8OcDLgdByzFZRjGy5UIXLNoihIpDbTw==
-----END CERTIFICATE-----
